target datalayout = "e-m:e-p270:32:32-p271:32:32-p272:64:64-i64:64-i128:128-f80:128-n8:16:32:64-S128"
target triple = "x86_64-pc-linux-gnu"

%struct.slurm_conf_t = type { i64, ptr, i16, ptr, ptr, ptr, ptr, ptr, i16, ptr, ptr, ptr, ptr, ptr, ptr, ptr, i16, ptr, ptr, ptr, ptr, i16, ptr, ptr, ptr, i64, ptr, ptr, ptr, ptr, i16, ptr, ptr, i16, i32, ptr, i32, ptr, i32, i32, ptr, ptr, i64, i64, ptr, i16, i16, ptr, i32, i32, ptr, i32, ptr, i32, i16, i16, i16, ptr, i16, i16, ptr, ptr, i32, i16, i16, ptr, i32, i16, ptr, ptr, ptr, ptr, i16, ptr, ptr, ptr, ptr, i32, ptr, ptr, ptr, ptr, i16, i16, ptr, i32, i32, i32, i16, i16, ptr, ptr, i16, ptr, ptr, i32, i32, i32, i32, i32, i64, i32, i32, i16, ptr, ptr, i32, ptr, ptr, ptr, i16, i32, ptr, ptr, i16, ptr, ptr, i32, i16, ptr, ptr, ptr, ptr, i32, i32, i16, i16, i32, ptr, i16, ptr, i32, i32, i32, i32, i32, i32, ptr, i16, ptr, ptr, i32, i16, ptr, i32, i16, i16, ptr, ptr, ptr, i16, ptr, ptr, ptr, ptr, i16, i16, ptr, i16, ptr, i16, ptr, i16, ptr, i16, ptr, ptr, ptr, ptr, i16, ptr, ptr, ptr, i32, ptr, i32, ptr, ptr, i16, ptr, ptr, i32, i16, ptr, ptr, i16, i16, ptr, i16, ptr, ptr, ptr, i32, ptr, i16, i16, ptr, ptr, ptr, ptr, ptr, ptr, ptr, ptr, i16, i32, i16, ptr, ptr, ptr, ptr, i32, ptr, ptr, ptr, i16, ptr, ptr, ptr, i16, ptr, i16, ptr, i16, i16, ptr }
%struct.timeval = type { i64, i64 }
%struct.job_descriptor = type { ptr, ptr, ptr, ptr, i16, i32, i32, ptr, ptr, ptr, ptr, i64, i64, ptr, ptr, ptr, ptr, i16, ptr, ptr, i16, ptr, i16, i32, i32, i32, ptr, ptr, i64, i32, ptr, i64, ptr, %struct.slurm_hash_t, i32, ptr, ptr, ptr, i64, i64, i32, i32, ptr, i16, i32, ptr, ptr, i16, ptr, ptr, i16, ptr, ptr, ptr, i16, ptr, ptr, ptr, i32, i32, i16, i8, ptr, i16, i8, ptr, i16, ptr, i32, i32, ptr, i16, ptr, i16, ptr, i16, ptr, i16, ptr, ptr, %struct.slurm_hash_t, i16, i32, ptr, i32, ptr, i32, i32, i32, ptr, ptr, ptr, ptr, ptr, ptr, i32, i16, i16, i16, i16, ptr, i16, i32, i32, i32, i32, i16, i16, i16, i16, i16, i16, i16, i16, i16, i16, i16, i64, i32, ptr, i32, i16, ptr, ptr, ptr, ptr, ptr, i32, ptr, i16, ptr, ptr, i16 }
%struct.slurm_hash_t = type { i8, [32 x i8] }

@slurm_conf = external global %struct.slurm_conf_t, align 8
@slurmctld_primary = external global i8, align 1
@.str.160 = private unnamed_addr constant [27 x i8] c"Error creating file %s, %m\00", align 1
@.str.161 = private unnamed_addr constant [26 x i8] c"Error writing file %s, %m\00", align 1
@.str.409 = private unnamed_addr constant [48 x i8] c"%s: batch job cannot run without an environment\00", align 1
@__func__._copy_job_desc_to_file = private unnamed_addr constant [23 x i8] c"_copy_job_desc_to_file\00", align 1
@.str.410 = private unnamed_addr constant [11 x i8] c"%s/hash.%d\00", align 1
@.str.411 = private unnamed_addr constant [8 x i8] c"/job.%u\00", align 1
@.str.412 = private unnamed_addr constant [85 x i8] c"Apparent duplicate JobId=%u. Two primary slurmctld daemons might currently be active\00", align 1
@.str.413 = private unnamed_addr constant [19 x i8] c"mkdir(%s) error %m\00", align 1
@.str.414 = private unnamed_addr constant [15 x i8] c"%s/environment\00", align 1
@.str.415 = private unnamed_addr constant [10 x i8] c"%s/script\00", align 1

; Function Attrs: nounwind uwtable
define internal i32 @_write_data_array_to_file(ptr noundef %0, ptr noundef %1, i32 noundef %2) #0 {
  %4 = alloca i32, align 4
  %5 = alloca ptr, align 8
  %6 = alloca ptr, align 8
  %7 = alloca i32, align 4
  %8 = alloca i32, align 4
  %9 = alloca i32, align 4
  %10 = alloca i32, align 4
  %11 = alloca i32, align 4
  %12 = alloca i32, align 4
  %13 = alloca i32, align 4
  store ptr %0, ptr %5, align 8
  store ptr %1, ptr %6, align 8
  store i32 %2, ptr %7, align 4
  call void @llvm.lifetime.start.p0(i64 4, ptr %8) #13
  call void @llvm.lifetime.start.p0(i64 4, ptr %9) #13
  call void @llvm.lifetime.start.p0(i64 4, ptr %10) #13
  call void @llvm.lifetime.start.p0(i64 4, ptr %11) #13
  call void @llvm.lifetime.start.p0(i64 4, ptr %12) #13
  %14 = load ptr, ptr %5, align 8
  %15 = call i32 @creat(ptr noundef %14, i32 noundef 384)
  store i32 %15, ptr %8, align 4
  %16 = load i32, ptr %8, align 4
  %17 = icmp slt i32 %16, 0
  br i1 %17, label %18, label %21

18:                                               ; preds = %3
  %19 = load ptr, ptr %5, align 8
  %20 = call i32 (ptr, ...) @error(ptr noundef @.str.160, ptr noundef %19)
  store i32 2019, ptr %4, align 4
  store i32 1, ptr %13, align 4
  br label %95

21:                                               ; preds = %3
  %22 = load i32, ptr %8, align 4
  %23 = call i64 @write(i32 noundef %22, ptr noundef %7, i64 noundef 4)
  %24 = trunc i64 %23 to i32
  store i32 %24, ptr %12, align 4
  %25 = load i32, ptr %12, align 4
  %26 = sext i32 %25 to i64
  %27 = icmp ult i64 %26, 4
  br i1 %27, label %28, label %33

28:                                               ; preds = %21
  %29 = load ptr, ptr %5, align 8
  %30 = call i32 (ptr, ...) @error(ptr noundef @.str.161, ptr noundef %29)
  %31 = load i32, ptr %8, align 4
  %32 = call i32 @close(i32 noundef %31)
  store i32 2019, ptr %4, align 4
  store i32 1, ptr %13, align 4
  br label %95

33:                                               ; preds = %21
  %34 = load ptr, ptr %6, align 8
  %35 = icmp eq ptr %34, null
  br i1 %35, label %36, label %39

36:                                               ; preds = %33
  %37 = load i32, ptr %8, align 4
  %38 = call i32 @close(i32 noundef %37)
  store i32 0, ptr %4, align 4
  store i32 1, ptr %13, align 4
  br label %95

39:                                               ; preds = %33
  store i32 0, ptr %9, align 4
  br label %40

40:                                               ; preds = %89, %39
  %41 = load i32, ptr %9, align 4
  %42 = load i32, ptr %7, align 4
  %43 = icmp ult i32 %41, %42
  br i1 %43, label %44, label %92

44:                                               ; preds = %40
  %45 = load ptr, ptr %6, align 8
  %46 = load i32, ptr %9, align 4
  %47 = sext i32 %46 to i64
  %48 = getelementptr inbounds ptr, ptr %45, i64 %47
  %49 = load ptr, ptr %48, align 8
  %50 = call i64 @strlen(ptr noundef %49) #16
  %51 = add i64 %50, 1
  %52 = trunc i64 %51 to i32
  store i32 %52, ptr %11, align 4
  store i32 0, ptr %10, align 4
  br label %53

53:                                               ; preds = %81, %44
  %54 = load i32, ptr %11, align 4
  %55 = icmp sgt i32 %54, 0
  br i1 %55, label %56, label %88

56:                                               ; preds = %53
  %57 = load i32, ptr %8, align 4
  %58 = load ptr, ptr %6, align 8
  %59 = load i32, ptr %9, align 4
  %60 = sext i32 %59 to i64
  %61 = getelementptr inbounds ptr, ptr %58, i64 %60
  %62 = load ptr, ptr %61, align 8
  %63 = load i32, ptr %10, align 4
  %64 = sext i32 %63 to i64
  %65 = getelementptr inbounds i8, ptr %62, i64 %64
  %66 = load i32, ptr %11, align 4
  %67 = sext i32 %66 to i64
  %68 = call i64 @write(i32 noundef %57, ptr noundef %65, i64 noundef %67)
  %69 = trunc i64 %68 to i32
  store i32 %69, ptr %12, align 4
  %70 = load i32, ptr %12, align 4
  %71 = icmp slt i32 %70, 0
  br i1 %71, label %72, label %81

72:                                               ; preds = %56
  %73 = call ptr @__errno_location() #14
  %74 = load i32, ptr %73, align 4
  %75 = icmp ne i32 %74, 4
  br i1 %75, label %76, label %81

76:                                               ; preds = %72
  %77 = load ptr, ptr %5, align 8
  %78 = call i32 (ptr, ...) @error(ptr noundef @.str.161, ptr noundef %77)
  %79 = load i32, ptr %8, align 4
  %80 = call i32 @close(i32 noundef %79)
  store i32 2019, ptr %4, align 4
  store i32 1, ptr %13, align 4
  br label %95

81:                                               ; preds = %72, %56
  %82 = load i32, ptr %12, align 4
  %83 = load i32, ptr %11, align 4
  %84 = sub nsw i32 %83, %82
  store i32 %84, ptr %11, align 4
  %85 = load i32, ptr %12, align 4
  %86 = load i32, ptr %10, align 4
  %87 = add nsw i32 %86, %85
  store i32 %87, ptr %10, align 4
  br label %53, !llvm.loop !118

88:                                               ; preds = %53
  br label %89

89:                                               ; preds = %88
  %90 = load i32, ptr %9, align 4
  %91 = add nsw i32 %90, 1
  store i32 %91, ptr %9, align 4
  br label %40, !llvm.loop !119

92:                                               ; preds = %40
  %93 = load i32, ptr %8, align 4
  %94 = call i32 @close(i32 noundef %93)
  store i32 0, ptr %4, align 4
  store i32 1, ptr %13, align 4
  br label %95

95:                                               ; preds = %92, %76, %36, %28, %18
  call void @llvm.lifetime.end.p0(i64 4, ptr %12) #13
  call void @llvm.lifetime.end.p0(i64 4, ptr %11) #13
  call void @llvm.lifetime.end.p0(i64 4, ptr %10) #13
  call void @llvm.lifetime.end.p0(i64 4, ptr %9) #13
  call void @llvm.lifetime.end.p0(i64 4, ptr %8) #13
  %96 = load i32, ptr %4, align 4
  ret i32 %96
}

; Function Attrs: nounwind uwtable
define internal i32 @_copy_job_desc_to_file(ptr noundef %0, i32 noundef %1) #0 {
  %3 = alloca i32, align 4
  %4 = alloca ptr, align 8
  %5 = alloca i32, align 4
  %6 = alloca i32, align 4
  %7 = alloca i32, align 4
  %8 = alloca ptr, align 8
  %9 = alloca ptr, align 8
  %10 = alloca %struct.timeval, align 8
  %11 = alloca %struct.timeval, align 8
  %12 = alloca [20 x i8], align 16
  %13 = alloca i64, align 8
  %14 = alloca i32, align 4
  store ptr %0, ptr %4, align 8
  store i32 %1, ptr %5, align 4
  call void @llvm.lifetime.start.p0(i64 4, ptr %6) #13
  store i32 0, ptr %6, align 4
  call void @llvm.lifetime.start.p0(i64 4, ptr %7) #13
  call void @llvm.lifetime.start.p0(i64 8, ptr %8) #13
  call void @llvm.lifetime.start.p0(i64 8, ptr %9) #13
  call void @llvm.lifetime.start.p0(i64 16, ptr %10) #13
  call void @llvm.lifetime.start.p0(i64 16, ptr %11) #13
  call void @llvm.lifetime.start.p0(i64 20, ptr %12) #13
  call void @llvm.memset.p0.i64(ptr align 16 %12, i8 0, i64 20, i1 false)
  call void @llvm.lifetime.start.p0(i64 8, ptr %13) #13
  %15 = call i32 @gettimeofday(ptr noundef %10, ptr noundef null) #13
  %16 = load ptr, ptr %4, align 8
  %17 = getelementptr inbounds nuw %struct.job_descriptor, ptr %16, i32 0, i32 18
  %18 = load ptr, ptr %17, align 8
  %19 = icmp ne ptr %18, null
  br i1 %19, label %32, label %20

20:                                               ; preds = %2
  %21 = load ptr, ptr %4, align 8
  %22 = getelementptr inbounds nuw %struct.job_descriptor, ptr %21, i32 0, i32 32
  %23 = load ptr, ptr %22, align 8
  %24 = icmp ne ptr %23, null
  br i1 %24, label %25, label %30

25:                                               ; preds = %20
  %26 = load ptr, ptr %4, align 8
  %27 = getelementptr inbounds nuw %struct.job_descriptor, ptr %26, i32 0, i32 34
  %28 = load i32, ptr %27, align 4
  %29 = icmp eq i32 %28, 0
  br i1 %29, label %30, label %32

30:                                               ; preds = %25, %20
  %31 = call i32 (ptr, ...) @error(ptr noundef @.str.409, ptr noundef @__func__._copy_job_desc_to_file)
  store i32 2127, ptr %3, align 4
  store i32 1, ptr %14, align 4
  br label %85

32:                                               ; preds = %25, %2
  %33 = load i32, ptr %5, align 4
  %34 = urem i32 %33, 10
  store i32 %34, ptr %7, align 4
  %35 = load ptr, ptr getelementptr inbounds nuw (%struct.slurm_conf_t, ptr @slurm_conf, i32 0, i32 199), align 8
  %36 = load i32, ptr %7, align 4
  %37 = call ptr (ptr, ...) @xstrdup_printf(ptr noundef @.str.410, ptr noundef %35, i32 noundef %36)
  store ptr %37, ptr %8, align 8
  %38 = load ptr, ptr %8, align 8
  %39 = call i32 @mkdir(ptr noundef %38, i32 noundef 448) #13
  %40 = load i32, ptr %5, align 4
  call void (ptr, ptr, ...) @_xstrfmtcat(ptr noundef %8, ptr noundef @.str.411, i32 noundef %40)
  %41 = load ptr, ptr %8, align 8
  %42 = call i32 @mkdir(ptr noundef %41, i32 noundef 448) #13
  %43 = icmp ne i32 %42, 0
  br i1 %43, label %44, label %57

44:                                               ; preds = %32
  %45 = load i8, ptr @slurmctld_primary, align 1, !range !8, !noundef !9
  %46 = trunc i8 %45 to i1
  br i1 %46, label %54, label %47

47:                                               ; preds = %44
  %48 = call ptr @__errno_location() #14
  %49 = load i32, ptr %48, align 4
  %50 = icmp eq i32 %49, 17
  br i1 %50, label %51, label %54

51:                                               ; preds = %47
  %52 = load i32, ptr %5, align 4
  %53 = call i32 (ptr, ...) @error(ptr noundef @.str.412, i32 noundef %52)
  br label %54

54:                                               ; preds = %51, %47, %44
  %55 = load ptr, ptr %8, align 8
  %56 = call i32 (ptr, ...) @error(ptr noundef @.str.413, ptr noundef %55)
  call void @slurm_xfree(ptr noundef %8)
  store i32 2019, ptr %3, align 4
  store i32 1, ptr %14, align 4
  br label %85

57:                                               ; preds = %32
  %58 = load ptr, ptr %8, align 8
  %59 = call ptr (ptr, ...) @xstrdup_printf(ptr noundef @.str.414, ptr noundef %58)
  store ptr %59, ptr %9, align 8
  %60 = load ptr, ptr %9, align 8
  %61 = load ptr, ptr %4, align 8
  %62 = getelementptr inbounds nuw %struct.job_descriptor, ptr %61, i32 0, i32 32
  %63 = load ptr, ptr %62, align 8
  %64 = load ptr, ptr %4, align 8
  %65 = getelementptr inbounds nuw %struct.job_descriptor, ptr %64, i32 0, i32 34
  %66 = load i32, ptr %65, align 4
  %67 = call i32 @_write_data_array_to_file(ptr noundef %60, ptr noundef %63, i32 noundef %66)
  store i32 %67, ptr %6, align 4
  call void @slurm_xfree(ptr noundef %9)
  %68 = load i32, ptr %6, align 4
  %69 = icmp eq i32 %68, 0
  br i1 %69, label %70, label %78

70:                                               ; preds = %57
  %71 = load ptr, ptr %8, align 8
  %72 = call ptr (ptr, ...) @xstrdup_printf(ptr noundef @.str.415, ptr noundef %71)
  store ptr %72, ptr %9, align 8
  %73 = load ptr, ptr %9, align 8
  %74 = load ptr, ptr %4, align 8
  %75 = getelementptr inbounds nuw %struct.job_descriptor, ptr %74, i32 0, i32 78
  %76 = load ptr, ptr %75, align 8
  %77 = call i32 @write_data_to_file(ptr noundef %73, ptr noundef %76)
  store i32 %77, ptr %6, align 4
  call void @slurm_xfree(ptr noundef %9)
  br label %78

78:                                               ; preds = %70, %57
  call void @slurm_xfree(ptr noundef %8)
  br label %79

79:                                               ; preds = %78
  %80 = call i32 @gettimeofday(ptr noundef %11, ptr noundef null) #13
  %81 = getelementptr inbounds [20 x i8], ptr %12, i64 0, i64 0
  call void @slurm_diff_tv_str(ptr noundef %10, ptr noundef %11, ptr noundef %81, i32 noundef 20, ptr noundef @__func__._copy_job_desc_to_file, i64 noundef 0, ptr noundef %13)
  br label %82

82:                                               ; preds = %79
  br label %83

83:                                               ; preds = %82
  %84 = load i32, ptr %6, align 4
  store i32 %84, ptr %3, align 4
  store i32 1, ptr %14, align 4
  br label %85

85:                                               ; preds = %83, %54, %30
  call void @llvm.lifetime.end.p0(i64 8, ptr %13) #13
  call void @llvm.lifetime.end.p0(i64 20, ptr %12) #13
  call void @llvm.lifetime.end.p0(i64 16, ptr %11) #13
  call void @llvm.lifetime.end.p0(i64 16, ptr %10) #13
  call void @llvm.lifetime.end.p0(i64 8, ptr %9) #13
  call void @llvm.lifetime.end.p0(i64 8, ptr %8) #13
  call void @llvm.lifetime.end.p0(i64 4, ptr %7) #13
  call void @llvm.lifetime.end.p0(i64 4, ptr %6) #13
  %86 = load i32, ptr %3, align 4
  ret i32 %86
}