; Function Attrs: nounwind uwtable
define internal fastcc range(i32 0, 2128) i32 @_copy_job_desc_to_file(ptr noundef readonly captures(none) %0, i32 noundef %1) unnamed_addr #0 {
  %3 = alloca i32, align 4
  %4 = alloca ptr, align 8
  %5 = alloca ptr, align 8
  %6 = alloca %struct.timeval, align 8
  %7 = alloca %struct.timeval, align 8
  %8 = alloca [20 x i8], align 16
  %9 = alloca i64, align 8
  call void @llvm.lifetime.start.p0(i64 8, ptr nonnull %4) #27
  call void @llvm.lifetime.start.p0(i64 8, ptr nonnull %5) #27
  call void @llvm.lifetime.start.p0(i64 16, ptr nonnull %6) #27
  call void @llvm.lifetime.start.p0(i64 16, ptr nonnull %7) #27
  call void @llvm.lifetime.start.p0(i64 20, ptr nonnull %8) #27
  call void @llvm.memset.p0.i64(ptr noundef nonnull align 16 dereferenceable(20) %8, i8 0, i64 20, i1 false)
  call void @llvm.lifetime.start.p0(i64 8, ptr nonnull %9) #27
  %10 = call i32 @gettimeofday(ptr noundef nonnull %6, ptr noundef null) #27
  %11 = getelementptr inbounds nuw i8, ptr %0, i64 136
  %12 = load ptr, ptr %11, align 8
  %.not = icmp eq ptr %12, null
  br i1 %.not, label %13, label %22

13:                                               ; preds = %2
  %14 = getelementptr inbounds nuw i8, ptr %0, i64 232
  %15 = load ptr, ptr %14, align 8
  %.not14 = icmp eq ptr %15, null
  br i1 %.not14, label %20, label %16

16:                                               ; preds = %13
  %17 = getelementptr inbounds nuw i8, ptr %0, i64 276
  %18 = load i32, ptr %17, align 4
  %19 = icmp eq i32 %18, 0
  br i1 %19, label %20, label %22

20:                                               ; preds = %16, %13
  %21 = tail call i32 (ptr, ...) @error(ptr noundef nonnull @.str.409, ptr noundef nonnull @__func__._copy_job_desc_to_file) #27
  br label %92

22:                                               ; preds = %16, %2
  %23 = urem i32 %1, 10
  %24 = load ptr, ptr getelementptr inbounds nuw (i8, ptr @slurm_conf, i64 1336), align 8
  %25 = tail call ptr (ptr, ...) @xstrdup_printf(ptr noundef nonnull @.str.410, ptr noundef %24, i32 noundef %23) #27
  store ptr %25, ptr %4, align 8
  %26 = tail call i32 @mkdir(ptr noundef %25, i32 noundef 448) #27
  call void (ptr, ptr, ...) @_xstrfmtcat(ptr noundef nonnull %4, ptr noundef nonnull @.str.411, i32 noundef %1) #27
  %27 = load ptr, ptr %4, align 8
  %28 = call i32 @mkdir(ptr noundef %27, i32 noundef 448) #27
  %.not15 = icmp eq i32 %28, 0
  br i1 %.not15, label %41, label %29

29:                                               ; preds = %22
  %30 = load i8, ptr @slurmctld_primary, align 1, !range !11, !noundef !12
  %31 = trunc nuw i8 %30 to i1
  br i1 %31, label %38, label %32

32:                                               ; preds = %29
  %33 = tail call ptr @__errno_location() #28
  %34 = load i32, ptr %33, align 4
  %35 = icmp eq i32 %34, 17
  br i1 %35, label %36, label %38

36:                                               ; preds = %32
  %37 = call i32 (ptr, ...) @error(ptr noundef nonnull @.str.412, i32 noundef %1) #27
  br label %38

38:                                               ; preds = %36, %32, %29
  %39 = load ptr, ptr %4, align 8
  %40 = call i32 (ptr, ...) @error(ptr noundef nonnull @.str.413, ptr noundef %39) #27
  call void @slurm_xfree(ptr noundef nonnull %4) #27
  br label %92

41:                                               ; preds = %22
  %42 = load ptr, ptr %4, align 8
  %43 = call ptr (ptr, ...) @xstrdup_printf(ptr noundef nonnull @.str.414, ptr noundef %42) #27
  store ptr %43, ptr %5, align 8
  %44 = getelementptr inbounds nuw i8, ptr %0, i64 232
  %45 = load ptr, ptr %44, align 8
  %46 = getelementptr inbounds nuw i8, ptr %0, i64 276
  %47 = load i32, ptr %46, align 4
  call void @llvm.lifetime.start.p0(i64 4, ptr nonnull %3)
  store i32 %47, ptr %3, align 4
  %48 = call i32 @creat(ptr noundef %43, i32 noundef 384) #27
  %49 = icmp slt i32 %48, 0
  br i1 %49, label %50, label %52

50:                                               ; preds = %41
  %51 = call i32 (ptr, ...) @error(ptr noundef nonnull @.str.160, ptr noundef %43) #27
  br label %_write_data_array_to_file.exit.thread

52:                                               ; preds = %41
  %53 = call i64 @write(i32 noundef %48, ptr noundef nonnull %3, i64 noundef 4) #27
  %54 = and i64 %53, 4294967292
  %55 = icmp eq i64 %54, 0
  br i1 %55, label %56, label %59

56:                                               ; preds = %52
  %57 = call i32 (ptr, ...) @error(ptr noundef nonnull @.str.161, ptr noundef %43) #27
  %58 = call i32 @close(i32 noundef %48) #27
  br label %_write_data_array_to_file.exit.thread

59:                                               ; preds = %52
  %60 = icmp eq ptr %45, null
  %.not37.i = icmp eq i32 %47, 0
  %or.cond = select i1 %60, i1 true, i1 %.not37.i
  br i1 %or.cond, label %._crit_edge36.i, label %.lr.ph35.preheader.i

.lr.ph35.preheader.i:                             ; preds = %59
  %wide.trip.count.i = zext i32 %47 to i64
  br label %.lr.ph35.i

.lr.ph35.i:                                       ; preds = %._crit_edge.i, %.lr.ph35.preheader.i
  %indvars.iv.i = phi i64 [ 0, %.lr.ph35.preheader.i ], [ %indvars.iv.next.i, %._crit_edge.i ]
  %61 = getelementptr inbounds nuw ptr, ptr %45, i64 %indvars.iv.i
  %62 = load ptr, ptr %61, align 8
  %63 = call i64 @strlen(ptr noundef nonnull dereferenceable(1) %62) #30
  %64 = trunc i64 %63 to i32
  %65 = icmp ult i32 %64, 2147483647
  br i1 %65, label %.lr.ph.preheader.i, label %._crit_edge.i

.lr.ph.preheader.i:                               ; preds = %.lr.ph35.i
  %66 = add nuw nsw i32 %64, 1
  br label %.lr.ph.i

.lr.ph.i:                                         ; preds = %80, %.lr.ph.preheader.i
  %.033.i = phi i32 [ %81, %80 ], [ %66, %.lr.ph.preheader.i ]
  %.02732.i = phi i32 [ %82, %80 ], [ 0, %.lr.ph.preheader.i ]
  %67 = load ptr, ptr %61, align 8
  %68 = sext i32 %.02732.i to i64
  %69 = getelementptr inbounds i8, ptr %67, i64 %68
  %70 = zext nneg i32 %.033.i to i64
  %71 = call i64 @write(i32 noundef %48, ptr noundef %69, i64 noundef %70) #27
  %72 = trunc i64 %71 to i32
  %73 = icmp slt i32 %72, 0
  br i1 %73, label %74, label %80

74:                                               ; preds = %.lr.ph.i
  %75 = tail call ptr @__errno_location() #28
  %76 = load i32, ptr %75, align 4
  %.not.i = icmp eq i32 %76, 4
  br i1 %.not.i, label %80, label %77

77:                                               ; preds = %74
  %78 = call i32 (ptr, ...) @error(ptr noundef nonnull @.str.161, ptr noundef %43) #27
  %79 = call i32 @close(i32 noundef %48) #27
  br label %_write_data_array_to_file.exit.thread

80:                                               ; preds = %74, %.lr.ph.i
  %81 = sub nsw i32 %.033.i, %72
  %82 = add nsw i32 %.02732.i, %72
  %83 = icmp sgt i32 %81, 0
  br i1 %83, label %.lr.ph.i, label %._crit_edge.i, !llvm.loop !121

._crit_edge.i:                                    ; preds = %80, %.lr.ph35.i
  %indvars.iv.next.i = add nuw nsw i64 %indvars.iv.i, 1
  %exitcond.not.i = icmp eq i64 %indvars.iv.next.i, %wide.trip.count.i
  br i1 %exitcond.not.i, label %._crit_edge36.i, label %.lr.ph35.i, !llvm.loop !122

_write_data_array_to_file.exit.thread:            ; preds = %50, %56, %77
  call void @llvm.lifetime.end.p0(i64 4, ptr nonnull %3)
  br label %90

._crit_edge36.i:                                  ; preds = %._crit_edge.i, %59
  %84 = call i32 @close(i32 noundef %48) #27
  call void @llvm.lifetime.end.p0(i64 4, ptr nonnull %3)
  call void @slurm_xfree(ptr noundef nonnull %5) #27
  %85 = load ptr, ptr %4, align 8
  %86 = call ptr (ptr, ...) @xstrdup_printf(ptr noundef nonnull @.str.415, ptr noundef %85) #27
  store ptr %86, ptr %5, align 8
  %87 = getelementptr inbounds nuw i8, ptr %0, i64 576
  %88 = load ptr, ptr %87, align 8
  %89 = call i32 @write_data_to_file(ptr noundef %86, ptr noundef %88)
  br label %90

90:                                               ; preds = %_write_data_array_to_file.exit.thread, %._crit_edge36.i
  %.012 = phi i32 [ %89, %._crit_edge36.i ], [ 2019, %_write_data_array_to_file.exit.thread ]
  call void @slurm_xfree(ptr noundef nonnull %5) #27
  call void @slurm_xfree(ptr noundef nonnull %4) #27
  %91 = call i32 @gettimeofday(ptr noundef nonnull %7, ptr noundef null) #27
  call void @slurm_diff_tv_str(ptr noundef nonnull %6, ptr noundef nonnull %7, ptr noundef nonnull %8, i32 noundef 20, ptr noundef nonnull @__func__._copy_job_desc_to_file, i64 noundef 0, ptr noundef nonnull %9) #27
  br label %92

92:                                               ; preds = %90, %38, %20
  %.0 = phi i32 [ 2019, %38 ], [ %.012, %90 ], [ 2127, %20 ]
  call void @llvm.lifetime.end.p0(i64 8, ptr nonnull %9) #27
  call void @llvm.lifetime.end.p0(i64 20, ptr nonnull %8) #27
  call void @llvm.lifetime.end.p0(i64 16, ptr nonnull %7) #27
  call void @llvm.lifetime.end.p0(i64 16, ptr nonnull %6) #27
  call void @llvm.lifetime.end.p0(i64 8, ptr nonnull %5) #27
  call void @llvm.lifetime.end.p0(i64 8, ptr nonnull %4) #27
  ret i32 %.0
}